target datalayout = "e-m:e-p270:32:32-p271:32:32-p272:64:64-i64:64-i128:128-f80:128-n8:16:32:64-S128"
target triple = "x86_64-pc-linux-gnu"

%struct._packet_info = type { ptr, ptr, i32, i32, %struct.nstime_t, %struct.nstime_t, %struct.nstime_t, i8, ptr, ptr, ptr, ptr, %struct._address, %struct._address, %struct._address, %struct._address, %struct._address, %struct._address, i32, ptr, i8, [3 x i8], %struct.anon, i32, i32, i32, i32, ptr, i8, ptr, ptr, i16, i16, i32, i32, i16, i32, i32, ptr, ptr, ptr, i8, i8, i16, i16, i16, i32, i16, i16, ptr, ptr, ptr, ptr, ptr, i32, i32 }
%struct.nstime_t = type { i64, i32 }
%struct._address = type { i32, i32, ptr, ptr }
%struct.anon = type { i8, [3 x i8] }
%struct._adwin_conv_info_t = type { ptr }
%struct._frame_data = type <{ i32, i32, i32, i32, i32, [4 x i8], i64, ptr, ptr, ptr, i8, i16, [5 x i8], %struct.nstime_t, %struct.nstime_t, i32, i32 }>
%struct._adwin_transaction_t = type { i32, i32, %struct.nstime_t }
%struct._proto_node = type { ptr, ptr, ptr, ptr, ptr, ptr, ptr }
%struct.field_info = type { ptr, i32, i32, i32, i32, i32, i32, ptr, ptr, ptr, i32, i32 }

@hf_adwin_response_in = internal global i32 0, align 4
@hf_adwin_response_to = internal global i32 0, align 4
@hf_adwin_response_time = internal global i32 0, align 4
@proto_adwin = internal global i32 0, align 4

; Function Attrs: inlinehint nounwind null_pointer_is_valid sspstrong uwtable
define internal void @proto_item_set_generated(ptr noundef %0) #6 {
  %2 = alloca ptr, align 8
  store ptr %0, ptr %2, align 8
  %3 = load ptr, ptr %2, align 8
  %4 = icmp ne ptr %3, null
  br i1 %4, label %5, label %24

5:                                                ; preds = %1
  br label %6

6:                                                ; preds = %5
  %7 = load ptr, ptr %2, align 8
  %8 = getelementptr inbounds nuw %struct._proto_node, ptr %7, i32 0, i32 5
  %9 = load ptr, ptr %8, align 8
  %10 = icmp ne ptr %9, null
  br i1 %10, label %11, label %22

11:                                               ; preds = %6
  %12 = load ptr, ptr %2, align 8
  %13 = getelementptr inbounds nuw %struct._proto_node, ptr %12, i32 0, i32 5
  %14 = load ptr, ptr %13, align 8
  %15 = getelementptr inbounds nuw %struct.field_info, ptr %14, i32 0, i32 6
  %16 = load i32, ptr %15, align 4
  %17 = or i32 %16, 2
  %18 = load ptr, ptr %2, align 8
  %19 = getelementptr inbounds nuw %struct._proto_node, ptr %18, i32 0, i32 5
  %20 = load ptr, ptr %19, align 8
  %21 = getelementptr inbounds nuw %struct.field_info, ptr %20, i32 0, i32 6
  store i32 %17, ptr %21, align 4
  br label %22

22:                                               ; preds = %11, %6
  br label %23

23:                                               ; preds = %22
  br label %24

24:                                               ; preds = %23, %1
  ret void
}

; Function Attrs: null_pointer_is_valid sspstrong uwtable
define internal void @adwin_request_response_handling(ptr noundef %0, ptr noundef %1, ptr noundef %2, i32 noundef %3, i32 noundef %4) #0 {
  %6 = alloca ptr, align 8
  %7 = alloca ptr, align 8
  %8 = alloca ptr, align 8
  %9 = alloca i32, align 4
  %10 = alloca i32, align 4
  %11 = alloca ptr, align 8
  %12 = alloca ptr, align 8
  %13 = alloca ptr, align 8
  %14 = alloca ptr, align 8
  %15 = alloca ptr, align 8
  %16 = alloca %struct.nstime_t, align 8
  store ptr %0, ptr %6, align 8
  store ptr %1, ptr %7, align 8
  store ptr %2, ptr %8, align 8
  store i32 %3, ptr %9, align 4
  store i32 %4, ptr %10, align 4
  call void @llvm.lifetime.start.p0(i64 8, ptr %11) #7
  call void @llvm.lifetime.start.p0(i64 8, ptr %12) #7
  call void @llvm.lifetime.start.p0(i64 8, ptr %13) #7
  %17 = load ptr, ptr %7, align 8
  %18 = call ptr @find_or_create_conversation(ptr noundef %17)
  store ptr %18, ptr %11, align 8
  %19 = load ptr, ptr %11, align 8
  %20 = load i32, ptr @proto_adwin, align 4
  %21 = call ptr @conversation_get_proto_data(ptr noundef %19, i32 noundef %20)
  store ptr %21, ptr %12, align 8
  %22 = load ptr, ptr %12, align 8
  %23 = icmp ne ptr %22, null
  br i1 %23, label %34, label %24

24:                                               ; preds = %5
  %25 = call ptr @wmem_file_scope()
  %26 = call noalias ptr @wmem_alloc(ptr noundef %25, i64 noundef 8) #8
  store ptr %26, ptr %12, align 8
  %27 = call ptr @wmem_file_scope()
  %28 = call noalias ptr @wmem_map_new(ptr noundef %27, ptr noundef @g_direct_hash, ptr noundef @g_direct_equal)
  %29 = load ptr, ptr %12, align 8
  %30 = getelementptr inbounds nuw %struct._adwin_conv_info_t, ptr %29, i32 0, i32 0
  store ptr %28, ptr %30, align 8
  %31 = load ptr, ptr %11, align 8
  %32 = load i32, ptr @proto_adwin, align 4
  %33 = load ptr, ptr %12, align 8
  call void @conversation_add_proto_data(ptr noundef %31, i32 noundef %32, ptr noundef %33)
  br label %34

34:                                               ; preds = %24, %5
  %35 = load ptr, ptr %7, align 8
  %36 = getelementptr inbounds nuw %struct._packet_info, ptr %35, i32 0, i32 8
  %37 = load ptr, ptr %36, align 8
  %38 = getelementptr inbounds nuw %struct._frame_data, ptr %37, i32 0, i32 11
  %39 = load i16, ptr %38, align 1
  %40 = lshr i16 %39, 3
  %41 = and i16 %40, 1
  %42 = zext i16 %41 to i32
  %43 = icmp ne i32 %42, 0
  br i1 %43, label %87, label %44

44:                                               ; preds = %34
  %45 = load i32, ptr %10, align 4
  %46 = icmp eq i32 %45, 0
  br i1 %46, label %47, label %69

47:                                               ; preds = %44
  %48 = call ptr @wmem_file_scope()
  %49 = call noalias ptr @wmem_alloc(ptr noundef %48, i64 noundef 24) #8
  store ptr %49, ptr %13, align 8
  %50 = load ptr, ptr %7, align 8
  %51 = getelementptr inbounds nuw %struct._packet_info, ptr %50, i32 0, i32 3
  %52 = load i32, ptr %51, align 4
  %53 = load ptr, ptr %13, align 8
  %54 = getelementptr inbounds nuw %struct._adwin_transaction_t, ptr %53, i32 0, i32 0
  store i32 %52, ptr %54, align 8
  %55 = load ptr, ptr %13, align 8
  %56 = getelementptr inbounds nuw %struct._adwin_transaction_t, ptr %55, i32 0, i32 1
  store i32 0, ptr %56, align 4
  %57 = load ptr, ptr %13, align 8
  %58 = getelementptr inbounds nuw %struct._adwin_transaction_t, ptr %57, i32 0, i32 2
  %59 = load ptr, ptr %7, align 8
  %60 = getelementptr inbounds nuw %struct._packet_info, ptr %59, i32 0, i32 4
  call void @llvm.memcpy.p0.p0.i64(ptr align 8 %58, ptr align 8 %60, i64 16, i1 false)
  %61 = load ptr, ptr %12, align 8
  %62 = getelementptr inbounds nuw %struct._adwin_conv_info_t, ptr %61, i32 0, i32 0
  %63 = load ptr, ptr %62, align 8
  %64 = load i32, ptr %9, align 4
  %65 = zext i32 %64 to i64
  %66 = inttoptr i64 %65 to ptr
  %67 = load ptr, ptr %13, align 8
  %68 = call ptr @wmem_map_insert(ptr noundef %63, ptr noundef %66, ptr noundef %67)
  br label %86

69:                                               ; preds = %44
  %70 = load ptr, ptr %12, align 8
  %71 = getelementptr inbounds nuw %struct._adwin_conv_info_t, ptr %70, i32 0, i32 0
  %72 = load ptr, ptr %71, align 8
  %73 = load i32, ptr %9, align 4
  %74 = zext i32 %73 to i64
  %75 = inttoptr i64 %74 to ptr
  %76 = call ptr @wmem_map_lookup(ptr noundef %72, ptr noundef %75)
  store ptr %76, ptr %13, align 8
  %77 = load ptr, ptr %13, align 8
  %78 = icmp ne ptr %77, null
  br i1 %78, label %79, label %85

79:                                               ; preds = %69
  %80 = load ptr, ptr %7, align 8
  %81 = getelementptr inbounds nuw %struct._packet_info, ptr %80, i32 0, i32 3
  %82 = load i32, ptr %81, align 4
  %83 = load ptr, ptr %13, align 8
  %84 = getelementptr inbounds nuw %struct._adwin_transaction_t, ptr %83, i32 0, i32 1
  store i32 %82, ptr %84, align 4
  br label %85

85:                                               ; preds = %79, %69
  br label %86

86:                                               ; preds = %85, %47
  br label %95

87:                                               ; preds = %34
  %88 = load ptr, ptr %12, align 8
  %89 = getelementptr inbounds nuw %struct._adwin_conv_info_t, ptr %88, i32 0, i32 0
  %90 = load ptr, ptr %89, align 8
  %91 = load i32, ptr %9, align 4
  %92 = zext i32 %91 to i64
  %93 = inttoptr i64 %92 to ptr
  %94 = call ptr @wmem_map_lookup(ptr noundef %90, ptr noundef %93)
  store ptr %94, ptr %13, align 8
  br label %95

95:                                               ; preds = %87, %86
  %96 = load ptr, ptr %13, align 8
  %97 = icmp ne ptr %96, null
  br i1 %97, label %111, label %98

98:                                               ; preds = %95
  %99 = load ptr, ptr %7, align 8
  %100 = getelementptr inbounds nuw %struct._packet_info, ptr %99, i32 0, i32 51
  %101 = load ptr, ptr %100, align 8
  %102 = call noalias ptr @wmem_alloc(ptr noundef %101, i64 noundef 24) #8
  store ptr %102, ptr %13, align 8
  %103 = load ptr, ptr %13, align 8
  %104 = getelementptr inbounds nuw %struct._adwin_transaction_t, ptr %103, i32 0, i32 0
  store i32 0, ptr %104, align 8
  %105 = load ptr, ptr %13, align 8
  %106 = getelementptr inbounds nuw %struct._adwin_transaction_t, ptr %105, i32 0, i32 1
  store i32 0, ptr %106, align 4
  %107 = load ptr, ptr %13, align 8
  %108 = getelementptr inbounds nuw %struct._adwin_transaction_t, ptr %107, i32 0, i32 2
  %109 = load ptr, ptr %7, align 8
  %110 = getelementptr inbounds nuw %struct._packet_info, ptr %109, i32 0, i32 4
  call void @llvm.memcpy.p0.p0.i64(ptr align 8 %108, ptr align 8 %110, i64 16, i1 false)
  br label %111

111:                                              ; preds = %98, %95
  %112 = load i32, ptr %10, align 4
  %113 = icmp eq i32 %112, 0
  br i1 %113, label %114, label %129

114:                                              ; preds = %111
  %115 = load ptr, ptr %13, align 8
  %116 = getelementptr inbounds nuw %struct._adwin_transaction_t, ptr %115, i32 0, i32 1
  %117 = load i32, ptr %116, align 4
  %118 = icmp ne i32 %117, 0
  br i1 %118, label %119, label %128

119:                                              ; preds = %114
  call void @llvm.lifetime.start.p0(i64 8, ptr %14) #7
  %120 = load ptr, ptr %8, align 8
  %121 = load i32, ptr @hf_adwin_response_in, align 4
  %122 = load ptr, ptr %6, align 8
  %123 = load ptr, ptr %13, align 8
  %124 = getelementptr inbounds nuw %struct._adwin_transaction_t, ptr %123, i32 0, i32 1
  %125 = load i32, ptr %124, align 4
  %126 = call ptr @proto_tree_add_uint(ptr noundef %120, i32 noundef %121, ptr noundef %122, i32 noundef 0, i32 noundef 0, i32 noundef %125)
  store ptr %126, ptr %14, align 8
  %127 = load ptr, ptr %14, align 8
  call void @proto_item_set_generated(ptr noundef %127)
  call void @llvm.lifetime.end.p0(i64 8, ptr %14) #7
  br label %128

128:                                              ; preds = %119, %114
  br label %153

129:                                              ; preds = %111
  %130 = load ptr, ptr %13, align 8
  %131 = getelementptr inbounds nuw %struct._adwin_transaction_t, ptr %130, i32 0, i32 0
  %132 = load i32, ptr %131, align 8
  %133 = icmp ne i32 %132, 0
  br i1 %133, label %134, label %152

134:                                              ; preds = %129
  call void @llvm.lifetime.start.p0(i64 8, ptr %15) #7
  call void @llvm.lifetime.start.p0(i64 16, ptr %16) #7
  %135 = load ptr, ptr %8, align 8
  %136 = load i32, ptr @hf_adwin_response_to, align 4
  %137 = load ptr, ptr %6, align 8
  %138 = load ptr, ptr %13, align 8
  %139 = getelementptr inbounds nuw %struct._adwin_transaction_t, ptr %138, i32 0, i32 0
  %140 = load i32, ptr %139, align 8
  %141 = call ptr @proto_tree_add_uint(ptr noundef %135, i32 noundef %136, ptr noundef %137, i32 noundef 0, i32 noundef 0, i32 noundef %140)
  store ptr %141, ptr %15, align 8
  %142 = load ptr, ptr %15, align 8
  call void @proto_item_set_generated(ptr noundef %142)
  %143 = load ptr, ptr %7, align 8
  %144 = getelementptr inbounds nuw %struct._packet_info, ptr %143, i32 0, i32 4
  %145 = load ptr, ptr %13, align 8
  %146 = getelementptr inbounds nuw %struct._adwin_transaction_t, ptr %145, i32 0, i32 2
  call void @nstime_delta(ptr noundef %16, ptr noundef %144, ptr noundef %146)
  %147 = load ptr, ptr %8, align 8
  %148 = load i32, ptr @hf_adwin_response_time, align 4
  %149 = load ptr, ptr %6, align 8
  %150 = call ptr @proto_tree_add_time(ptr noundef %147, i32 noundef %148, ptr noundef %149, i32 noundef 0, i32 noundef 0, ptr noundef %16)
  store ptr %150, ptr %15, align 8
  %151 = load ptr, ptr %15, align 8
  call void @proto_item_set_generated(ptr noundef %151)
  call void @llvm.lifetime.end.p0(i64 16, ptr %16) #7
  call void @llvm.lifetime.end.p0(i64 8, ptr %15) #7
  br label %152

152:                                              ; preds = %134, %129
  br label %153

153:                                              ; preds = %152, %128
  call void @llvm.lifetime.end.p0(i64 8, ptr %13) #7
  call void @llvm.lifetime.end.p0(i64 8, ptr %12) #7
  call void @llvm.lifetime.end.p0(i64 8, ptr %11) #7
  ret void
}