; Function Attrs: null_pointer_is_valid sspstrong uwtable
define internal fastcc void @adwin_request_response_handling(ptr noundef %0, ptr noundef %1, ptr noundef %2, i32 noundef %3, i32 noundef range(i32 0, 2) %4) unnamed_addr #0 {
  %6 = alloca %struct.nstime_t, align 8
  %7 = tail call ptr @find_or_create_conversation(ptr noundef %1)
  %8 = load i32, ptr @proto_adwin, align 4
  %9 = tail call ptr @conversation_get_proto_data(ptr noundef %7, i32 noundef %8)
  %.not = icmp eq ptr %9, null
  br i1 %.not, label %10, label %16

10:                                               ; preds = %5
  %11 = tail call ptr @wmem_file_scope()
  %12 = tail call noalias dereferenceable_or_null(8) ptr @wmem_alloc(ptr noundef %11, i64 noundef 8) #7
  %13 = tail call ptr @wmem_file_scope()
  %14 = tail call noalias ptr @wmem_map_new(ptr noundef %13, ptr noundef nonnull @g_direct_hash, ptr noundef nonnull @g_direct_equal)
  store ptr %14, ptr %12, align 8
  %15 = load i32, ptr @proto_adwin, align 4
  tail call void @conversation_add_proto_data(ptr noundef %7, i32 noundef %15, ptr noundef %12)
  br label %16

16:                                               ; preds = %10, %5
  %.0 = phi ptr [ %9, %5 ], [ %12, %10 ]
  %17 = getelementptr inbounds nuw i8, ptr %1, i64 80
  %18 = load ptr, ptr %17, align 8
  %19 = getelementptr inbounds nuw i8, ptr %18, i64 57
  %20 = load i16, ptr %19, align 1
  %21 = and i16 %20, 8
  %.not49 = icmp eq i16 %21, 0
  br i1 %.not49, label %22, label %44

22:                                               ; preds = %16
  %23 = icmp eq i32 %4, 0
  br i1 %23, label %24, label %36

24:                                               ; preds = %22
  %25 = tail call ptr @wmem_file_scope()
  %26 = tail call noalias dereferenceable_or_null(24) ptr @wmem_alloc(ptr noundef %25, i64 noundef 24) #7
  %27 = getelementptr inbounds nuw i8, ptr %1, i64 20
  %28 = load i32, ptr %27, align 4
  store i32 %28, ptr %26, align 8
  %29 = getelementptr inbounds nuw i8, ptr %26, i64 4
  store i32 0, ptr %29, align 4
  %30 = getelementptr inbounds nuw i8, ptr %26, i64 8
  %31 = getelementptr inbounds nuw i8, ptr %1, i64 24
  tail call void @llvm.memcpy.p0.p0.i64(ptr noundef nonnull align 8 dereferenceable(16) %30, ptr noundef nonnull align 8 dereferenceable(16) %31, i64 16, i1 false)
  %32 = load ptr, ptr %.0, align 8
  %33 = zext i32 %3 to i64
  %34 = inttoptr i64 %33 to ptr
  %35 = tail call ptr @wmem_map_insert(ptr noundef %32, ptr noundef %34, ptr noundef %26)
  br label %49

36:                                               ; preds = %22
  %37 = load ptr, ptr %.0, align 8
  %38 = zext i32 %3 to i64
  %39 = inttoptr i64 %38 to ptr
  %40 = tail call ptr @wmem_map_lookup(ptr noundef %37, ptr noundef %39)
  %.not50 = icmp eq ptr %40, null
  br i1 %.not50, label %.thread, label %.thread65

.thread65:                                        ; preds = %36
  %41 = getelementptr inbounds nuw i8, ptr %1, i64 20
  %42 = load i32, ptr %41, align 4
  %43 = getelementptr inbounds nuw i8, ptr %40, i64 4
  store i32 %42, ptr %43, align 4
  br label %71

44:                                               ; preds = %16
  %45 = load ptr, ptr %.0, align 8
  %46 = zext i32 %3 to i64
  %47 = inttoptr i64 %46 to ptr
  %48 = tail call ptr @wmem_map_lookup(ptr noundef %45, ptr noundef %47)
  br label %49

49:                                               ; preds = %24, %44
  %.044 = phi ptr [ %48, %44 ], [ %26, %24 ]
  %.not51 = icmp eq ptr %.044, null
  br i1 %.not51, label %.thread, label %56

.thread:                                          ; preds = %36, %49
  %50 = getelementptr inbounds nuw i8, ptr %1, i64 408
  %51 = load ptr, ptr %50, align 8
  %52 = tail call noalias dereferenceable_or_null(24) ptr @wmem_alloc(ptr noundef %51, i64 noundef 24) #7
  store i32 0, ptr %52, align 8
  %53 = getelementptr inbounds nuw i8, ptr %52, i64 4
  store i32 0, ptr %53, align 4
  %54 = getelementptr inbounds nuw i8, ptr %52, i64 8
  %55 = getelementptr inbounds nuw i8, ptr %1, i64 24
  tail call void @llvm.memcpy.p0.p0.i64(ptr noundef nonnull align 8 dereferenceable(16) %54, ptr noundef nonnull align 8 dereferenceable(16) %55, i64 16, i1 false)
  br label %56

56:                                               ; preds = %.thread, %49
  %.1 = phi ptr [ %.044, %49 ], [ %52, %.thread ]
  %57 = icmp eq i32 %4, 0
  br i1 %57, label %58, label %71

58:                                               ; preds = %56
  %59 = getelementptr inbounds nuw i8, ptr %.1, i64 4
  %60 = load i32, ptr %59, align 4
  %.not53 = icmp eq i32 %60, 0
  br i1 %.not53, label %proto_item_set_generated.exit, label %61

61:                                               ; preds = %58
  %62 = load i32, ptr @hf_adwin_response_in, align 4
  %63 = tail call ptr @proto_tree_add_uint(ptr noundef %2, i32 noundef %62, ptr noundef %0, i32 noundef 0, i32 noundef 0, i32 noundef %60)
  %.not.i = icmp eq ptr %63, null
  br i1 %.not.i, label %proto_item_set_generated.exit, label %64

64:                                               ; preds = %61
  %65 = getelementptr inbounds nuw i8, ptr %63, i64 40
  %66 = load ptr, ptr %65, align 8
  %.not5.i = icmp eq ptr %66, null
  br i1 %.not5.i, label %proto_item_set_generated.exit, label %67

67:                                               ; preds = %64
  %68 = getelementptr inbounds nuw i8, ptr %66, i64 28
  %69 = load i32, ptr %68, align 4
  %70 = or i32 %69, 2
  store i32 %70, ptr %68, align 4
  br label %proto_item_set_generated.exit

71:                                               ; preds = %.thread65, %56
  %.167 = phi ptr [ %40, %.thread65 ], [ %.1, %56 ]
  %72 = load i32, ptr %.167, align 8
  %.not52 = icmp eq i32 %72, 0
  br i1 %.not52, label %proto_item_set_generated.exit, label %73

73:                                               ; preds = %71
  call void @llvm.lifetime.start.p0(i64 16, ptr nonnull %6) #6
  %74 = load i32, ptr @hf_adwin_response_to, align 4
  %75 = tail call ptr @proto_tree_add_uint(ptr noundef %2, i32 noundef %74, ptr noundef %0, i32 noundef 0, i32 noundef 0, i32 noundef %72)
  %.not.i54 = icmp eq ptr %75, null
  br i1 %.not.i54, label %proto_item_set_generated.exit56, label %76

76:                                               ; preds = %73
  %77 = getelementptr inbounds nuw i8, ptr %75, i64 40
  %78 = load ptr, ptr %77, align 8
  %.not5.i55 = icmp eq ptr %78, null
  br i1 %.not5.i55, label %proto_item_set_generated.exit56, label %79

79:                                               ; preds = %76
  %80 = getelementptr inbounds nuw i8, ptr %78, i64 28
  %81 = load i32, ptr %80, align 4
  %82 = or i32 %81, 2
  store i32 %82, ptr %80, align 4
  br label %proto_item_set_generated.exit56

proto_item_set_generated.exit56:                  ; preds = %73, %76, %79
  %83 = getelementptr inbounds nuw i8, ptr %1, i64 24
  %84 = getelementptr inbounds nuw i8, ptr %.167, i64 8
  call void @nstime_delta(ptr noundef nonnull %6, ptr noundef nonnull %83, ptr noundef nonnull %84)
  %85 = load i32, ptr @hf_adwin_response_time, align 4
  %86 = call ptr @proto_tree_add_time(ptr noundef %2, i32 noundef %85, ptr noundef %0, i32 noundef 0, i32 noundef 0, ptr noundef nonnull %6)
  %.not.i57 = icmp eq ptr %86, null
  br i1 %.not.i57, label %proto_item_set_generated.exit59, label %87

87:                                               ; preds = %proto_item_set_generated.exit56
  %88 = getelementptr inbounds nuw i8, ptr %86, i64 40
  %89 = load ptr, ptr %88, align 8
  %.not5.i58 = icmp eq ptr %89, null
  br i1 %.not5.i58, label %proto_item_set_generated.exit59, label %90

90:                                               ; preds = %87
  %91 = getelementptr inbounds nuw i8, ptr %89, i64 28
  %92 = load i32, ptr %91, align 4
  %93 = or i32 %92, 2
  store i32 %93, ptr %91, align 4
  br label %proto_item_set_generated.exit59

proto_item_set_generated.exit59:                  ; preds = %proto_item_set_generated.exit56, %87, %90
  call void @llvm.lifetime.end.p0(i64 16, ptr nonnull %6) #6
  br label %proto_item_set_generated.exit

proto_item_set_generated.exit:                    ; preds = %67, %64, %61, %71, %proto_item_set_generated.exit59, %58
  ret void
}